target datalayout = "e-m:e-p270:32:32-p271:32:32-p272:64:64-i64:64-i128:128-f80:128-n8:16:32:64-S128"
target triple = "x86_64-pc-linux-gnu"

%struct.git_hash_algo = type { ptr, i32, i64, i64, i64, ptr, ptr, ptr, ptr, ptr, ptr, ptr, ptr, ptr }

; Function Attrs: nounwind uwtable
define dso_local i32 @hash_algo_by_name(ptr noundef %0) #0 {
  %2 = alloca i32, align 4
  %3 = alloca ptr, align 8
  %4 = alloca i32, align 4
  %5 = alloca i32, align 4
  store ptr %0, ptr %3, align 8, !tbaa !12
  call void @llvm.lifetime.start.p0(i64 4, ptr %4) #14
  %6 = load ptr, ptr %3, align 8, !tbaa !12
  %7 = icmp ne ptr %6, null
  br i1 %7, label %9, label %8

8:                                                ; preds = %1
  store i32 0, ptr %2, align 4
  store i32 1, ptr %5, align 4
  br label %29

9:                                                ; preds = %1
  store i32 1, ptr %4, align 4, !tbaa !43
  br label %10

10:                                               ; preds = %25, %9
  %11 = load i32, ptr %4, align 4, !tbaa !43
  %12 = icmp slt i32 %11, 3
  br i1 %12, label %13, label %28

13:                                               ; preds = %10
  %14 = load ptr, ptr %3, align 8, !tbaa !12
  %15 = load i32, ptr %4, align 4, !tbaa !43
  %16 = sext i32 %15 to i64
  %17 = getelementptr inbounds [3 x %struct.git_hash_algo], ptr @hash_algos, i64 0, i64 %16
  %18 = getelementptr inbounds nuw %struct.git_hash_algo, ptr %17, i32 0, i32 0
  %19 = load ptr, ptr %18, align 16, !tbaa !44
  %20 = call i32 @strcmp(ptr noundef %14, ptr noundef %19) #15
  %21 = icmp ne i32 %20, 0
  br i1 %21, label %24, label %22

22:                                               ; preds = %13
  %23 = load i32, ptr %4, align 4, !tbaa !43
  store i32 %23, ptr %2, align 4
  store i32 1, ptr %5, align 4
  br label %29

24:                                               ; preds = %13
  br label %25

25:                                               ; preds = %24
  %26 = load i32, ptr %4, align 4, !tbaa !43
  %27 = add nsw i32 %26, 1
  store i32 %27, ptr %4, align 4, !tbaa !43
  br label %10, !llvm.loop !45

28:                                               ; preds = %10
  store i32 0, ptr %2, align 4
  store i32 1, ptr %5, align 4
  br label %29

29:                                               ; preds = %28, %22, %8
  call void @llvm.lifetime.end.p0(i64 4, ptr %4) #14
  %30 = load i32, ptr %2, align 4
  ret i32 %30
}