; Function Attrs: nofree nounwind memory(read, inaccessiblemem: none) uwtable
define dso_local range(i32 0, 3) i32 @hash_algo_by_name(ptr noundef readonly %0) local_unnamed_addr #5 {
  %.not = icmp eq ptr %0, null
  br i1 %.not, label %.loopexit, label %.preheader

.preheader:                                       ; preds = %1, %5
  %indvars.iv = phi i64 [ %indvars.iv.next, %5 ], [ 1, %1 ]
  %2 = getelementptr inbounds nuw [3 x %struct.git_hash_algo], ptr @hash_algos, i64 0, i64 %indvars.iv
  %3 = load ptr, ptr %2, align 16, !tbaa !36
  %4 = tail call i32 @strcmp(ptr noundef nonnull dereferenceable(1) %0, ptr noundef nonnull dereferenceable(1) %3) #28
  %.not8 = icmp eq i32 %4, 0
  br i1 %.not8, label %.loopexit.loopexit.split.loop.exit, label %5

5:                                                ; preds = %.preheader
  %indvars.iv.next = add nuw nsw i64 %indvars.iv, 1
  %exitcond.not = icmp eq i64 %indvars.iv.next, 3
  br i1 %exitcond.not, label %.loopexit, label %.preheader, !llvm.loop !37

.loopexit.loopexit.split.loop.exit:               ; preds = %.preheader
  %6 = trunc nuw nsw i64 %indvars.iv to i32
  br label %.loopexit

.loopexit:                                        ; preds = %5, %.loopexit.loopexit.split.loop.exit, %1
  %.06 = phi i32 [ 0, %1 ], [ %6, %.loopexit.loopexit.split.loop.exit ], [ 0, %5 ]
  ret i32 %.06
}